(lp0
(S'20130428'
p1
V1,583,440,000
p2
tp3
a(S'20130505'
p4
V1,370,880,000
p5
tp6
a(S'20130512'
p7
V1,355,529,984
p8
tp9
a(S'20130519'
p10
V1,445,040,000
p11
tp12
a(S'20130526'
p13
V1,573,330,048
p14
tp15
a(S'20130602'
p16
V1,437,159,936
p17
tp18
a(S'20130609'
p19
V1,191,800,064
p20
tp21
a(S'20130616'
p22
V1,176,669,952
p23
tp24
a(S'20130623'
p25
V1,291,449,984
p26
tp27
a(S'20130630'
p28
V1,172,969,984
p29
tp30
a(S'20130707'
p31
V931,886,976
p32
tp33
a(S'20130714'
p34
V1,139,960,064
p35
tp36
a(S'20130721'
p37
V1,116,540,032
p38
tp39
a(S'20130728'
p40
V1,219,320,064
p41
tp42
a(S'20130804'
p43
V1,337,120,000
p44
tp45
a(S'20130811'
p46
V1,316,160,000
p47
tp48
a(S'20130818'
p49
V1,432,429,952
p50
tp51
a(S'20130825'
p52
V1,542,210,048
p53
tp54
a(S'20130901'
p55
V1,725,049,984
p56
tp57
a(S'20130908'
p58
V1,541,709,952
p59
tp60
a(S'20130915'
p61
V1,648,640,000
p62
tp63
a(S'20130922'
p64
V1,671,500,032
p65
tp66
a(S'20130929'
p67
V1,782,739,968
p68
tp69
a(S'20131006'
p70
V1,664,640,000
p71
tp72
a(S'20131013'
p73
V1,784,710,016
p74
tp75
a(S'20131020'
p76
V2,192,689,920
p77
tp78
a(S'20131027'
p79
V2,459,320,064
p80
tp81
a(S'20131103'
p82
V2,707,279,872
p83
tp84
a(S'20131110'
p85
V4,063,399,936
p86
tp87
a(S'20131117'
p88
V6,172,020,224
p89
tp90
a(S'20131124'
p91
V9,782,479,872
p92
tp93
a(S'20131201'
p94
V13,134,100,480
p95
tp96
a(S'20131208'
p97
V10,827,200,512
p98
tp99
a(S'20131215'
p100
V12,054,800,384
p101
tp102
a(S'20131222'
p103
V8,259,129,856
p104
tp105
a(S'20131229'
p106
V10,327,100,416
p107
tp108
a(S'20140105'
p109
V12,875,700,224
p110
tp111
a(S'20140112'
p112
V11,765,099,520
p113
tp114
a(S'20140119'
p115
V12,003,600,384
p116
tp117
a(S'20140126'
p118
V12,214,800,384
p119
tp120
a(S'20140202'
p121
V11,416,999,936
p122
tp123
a(S'20140209'
p124
V9,434,380,288
p125
tp126
a(S'20140216'
p127
V8,597,449,728
p128
tp129
a(S'20140223'
p130
V8,513,099,776
p131
tp132
a(S'20140302'
p133
V8,025,630,208
p134
tp135
a(S'20140309'
p136
V9,140,330,496
p137
tp138
a(S'20140316'
p139
V8,994,100,224
p140
tp141
a(S'20140323'
p142
V8,101,510,144
p143
tp144
a(S'20140330'
p145
V6,511,099,904
p146
tp147
a(S'20140406'
p148
V6,473,359,872
p149
tp150
a(S'20140413'
p151
V5,785,269,760
p152
tp153
a(S'20140420'
p154
V7,026,189,824
p155
tp156
a(S'20140427'
p157
V6,033,619,968
p158
tp159
a(S'20140504'
p160
V6,114,189,824
p161
tp162
a(S'20140511'
p163
V6,195,539,968
p164
tp165
a(S'20140518'
p166
V6,309,250,048
p167
tp168
a(S'20140525'
p169
V8,029,660,160
p170
tp171
a(S'20140601'
p172
V8,811,700,224
p173
tp174
a(S'20140608'
p175
V9,132,229,632
p176
tp177
a(S'20140615'
p178
V8,295,529,984
p179
tp180
a(S'20140622'
p181
V8,450,070,016
p182
tp183
a(S'20140629'
p184
V8,403,489,792
p185
tp186
a(S'20140706'
p187
V8,783,750,144
p188
tp189
a(S'20140713'
p190
V8,732,000,256
p191
tp192
a(S'20140720'
p193
V8,722,499,584
p194
tp195
a(S'20140727'
p196
V8,315,639,808
p197
tp198
a(S'20140803'
p199
V8,227,230,208
p200
tp201
a(S'20140810'
p202
V8,261,029,888
p203
tp204
a(S'20140817'
p205
V6,834,749,952
p206
tp207
a(S'20140824'
p208
V7,158,980,096
p209
tp210
a(S'20140831'
p211
V6,846,150,144
p212
tp213
a(S'20140907'
p214
V6,946,979,840
p215
tp216
a(S'20140914'
p217
V6,962,259,968
p218
tp219
a(S'20140921'
p220
V5,859,200,000
p221
tp222
a(S'20140928'
p223
V5,599,490,048
p224
tp225
a(S'20141005'
p226
V4,788,570,112
p227
tp228
a(S'20141012'
p229
V5,596,870,144
p230
tp231
a(S'20141019'
p232
V5,758,759,936
p233
tp234
a(S'20141026'
p235
V5,257,909,760
p236
tp237
a(S'20141102'
p238
V4,838,349,824
p239
tp240
a(S'20141109'
p241
V5,385,880,064
p242
tp243
a(S'20141116'
p244
V5,765,069,824
p245
tp246
a(S'20141123'
p247
V5,594,849,792
p248
tp249
a(S'20141130'
p250
V5,847,320,064
p251
tp252
a(S'20141207'
p253
V5,936,659,968
p254
tp255
a(S'20141214'
p256
V5,673,630,208
p257
tp258
a(S'20141221'
p259
V5,601,650,176
p260
tp261
a(S'20141228'
p262
V5,569,439,744
p263
tp264
a(S'20150104'
p265
V4,544,220,160
p266
tp267
a(S'20150111'
p268
V4,538,500,096
p269
tp270
a(S'20150118'
p271
V3,654,000,128
p272
tp273
a(S'20150125'
p274
V4,325,199,872
p275
tp276
a(S'20150201'
p277
V3,823,330,048
p278
tp279
a(S'20150208'
p280
V3,796,999,936
p281
tp282
a(S'20150215'
p283
V3,944,910,080
p284
tp285
a(S'20150222'
p286
V3,938,660,096
p287
tp288
a(S'20150301'
p289
V4,284,320,000
p290
tp291
a(S'20150308'
p292
V4,409,430,016
p293
tp294
a(S'20150315'
p295
V4,598,640,128
p296
tp297
a(S'20150322'
p298
V4,334,410,240
p299
tp300
a(S'20150329'
p301
V3,920,940,032
p302
tp303
a(S'20150405'
p304
V4,185,319,936
p305
tp306
a(S'20150412'
p307
V3,810,959,872
p308
tp309
a(S'20150419'
p310
V3,595,040,000
p311
tp312
a(S'20150426'
p313
V3,544,800,000
p314
tp315
a(S'20150503'
p316
V3,863,780,096
p317
tp318
a(S'20150510'
p319
V3,844,209,920
p320
tp321
a(S'20150517'
p322
V3,780,859,904
p323
tp324
a(S'20150524'
p325
V3,905,489,920
p326
tp327
a(S'20150531'
p328
V3,799,950,080
p329
tp330
a(S'20150607'
p331
V3,694,360,064
p332
tp333
a(S'20150614'
p334
V3,878,190,080
p335
tp336
a(S'20150621'
p337
V4,170,050,048
p338
tp339
a(S'20150628'
p340
V4,284,969,984
p341
tp342
a(S'20150705'
p343
V4,655,300,096
p344
tp345
a(S'20150712'
p346
V5,228,389,888
p347
tp348
a(S'20150719'
p349
V4,585,099,776
p350
tp351
a(S'20150726'
p352
V4,924,290,048
p353
tp354
a(S'20150802'
p355
V4,758,850,048
p356
tp357
a(S'20150809'
p358
V4,545,619,968
p359
tp360
a(S'20150816'
p361
V4,485,210,112
p362
tp363
a(S'20150823'
p364
V3,978,579,968
p365
tp366
a(S'20150830'
p367
V3,995,770,112
p368
tp369
a(S'20150906'
p370
V4,169,760,000
p371
tp372
a(S'20150913'
p373
V4,013,959,936
p374
tp375
a(S'20150920'
p376
V4,010,129,920
p377
tp378
a(S'20150927'
p379
V3,987,500,032
p380
tp381
a(S'20151004'
p382
V4,026,060,032
p383
tp384
a(S'20151011'
p385
V4,164,049,920
p386
tp387
a(S'20151018'
p388
V4,359,989,760
p389
tp390
a(S'20151025'
p391
V4,682,630,144
p392
tp393
a(S'20151101'
p394
V5,426,579,968
p395
tp396
a(S'20151108'
p397
V6,104,970,240
p398
tp399
a(S'20151115'
p400
V5,245,329,920
p401
tp402
a(S'20151122'
p403
V5,333,120,000
p404
tp405
a(S'20151129'
p406
V6,073,299,968
p407
tp408
a(S'20151206'
p409
V6,388,610,048
p410
tp411
a(S'20151213'
p412
V7,192,759,808
p413
tp414
a(S'20151220'
p415
V7,250,030,080
p416
tp417
a(S'20151227'
p418
V6,967,860,224
p419
tp420
a(S'20160103'
p421
V7,088,010,240
p422
tp423
a(S'20160110'
p424
V7,391,110,144
p425
tp426
a(S'20160117'
p427
V6,380,640,256
p428
tp429
a(S'20160124'
p430
V6,788,720,128
p431
tp432
a(S'20160131'
p433
V6,371,879,936
p434
tp435
a(S'20160207'
p436
V6,628,140,032
p437
tp438
a(S'20160214'
p439
V7,351,439,872
p440
tp441
a(S'20160221'
p442
V7,788,939,776
p443
tp444
a(S'20160228'
p445
V7,855,280,128
p446
tp447
a(S'20160306'
p448
V7,869,969,920
p449
tp450
a(S'20160313'
p451
V8,300,389,888
p452
tp453
a(S'20160320'
p454
V7,937,010,176
p455
tp456
a(S'20160327'
p457
V8,205,109,760
p458
tp459
a(S'20160403'
p460
V8,230,689,792
p461
tp462
a(S'20160410'
p463
V7,936,300,032
p464
tp465
a(S'20160417'
p466
V8,098,659,840
p467
tp468
a(S'20160424'
p469
V8,545,560,064
p470
tp471
a(S'20160501'
p472
V8,486,219,776
p473
tp474
a(S'20160508'
p475
V8,657,800,192
p476
tp477
a(S'20160515'
p478
V8,691,760,128
p479
tp480
a(S'20160522'
p481
V8,777,050,112
p482
tp483
a(S'20160529'
p484
V10,218,500,096
p485
tp486
a(S'20160605'
p487
V11,142,500,352
p488
tp489
a(S'20160612'
p490
V12,895,500,288
p491
tp492
a(S'20160619'
p493
V14,126,499,840
p494
tp495
a(S'20160626'
p496
V12,097,200,128
p497
tp498
a(S'20160703'
p499
V12,482,100,224
p500
tp501
a(S'20160710'
p502
V12,300,099,584
p503
tp504
a(S'20160717'
p505
V13,114,200,064
p506
tp507
a(S'20160724'
p508
V12,954,099,712
p509
tp510
a(S'20160731'
p511
V12,238,900,224
p512
tp513
a(S'20160807'
p514
V11,682,100,224
p515
tp516
a(S'20160814'
p517
V11,332,500,480
p518
tp519
a(S'20160821'
p520
V11,508,599,808
p521
tp522
a(S'20160828'
p523
V11,354,099,712
p524
tp525
a(S'20160904'
p526
V12,080,700,416
p527
tp528
a(S'20160911'
p529
V11,999,299,584
p530
tp531
a(S'20160918'
p532
V12,152,899,584
p533
tp534
a(S'20160925'
p535
V12,102,400,000
p536
tp537
a(S'20161002'
p538
V12,215,199,744
p539
tp540
a(S'20161009'
p541
V12,256,700,416
p542
tp543
a(S'20161016'
p544
V12,636,099,584
p545
tp546
a(S'20161023'
p547
V12,940,300,288
p548
tp549
a(S'20161030'
p550
V13,511,400,448
p551
tp552
a(S'20161106'
p553
V13,635,600,384
p554
tp555
a(S'20161113'
p556
V13,442,499,584
p557
tp558
a(S'20161120'
p559
V13,816,999,936
p560
tp561
a(S'20161127'
p562
V13,797,300,224
p563
tp564
a(S'20161204'
p565
V14,297,600,000
p566
tp567
a(S'20161211'
p568
V14,341,300,224
p569
tp570
a(S'20161218'
p571
V14,699,799,552
p572
tp573
a(S'20161225'
p574
V16,447,699,968
p575
tp576
a(S'20170101'
p577
V18,322,800,640
p578
tp579
a(S'20170108'
p580
V17,134,199,808
p581
tp582
a(S'20170115'
p583
V15,607,600,128
p584
tp585
a(S'20170122'
p586
V17,472,399,360
p587
tp588
a(S'20170129'
p589
V17,450,999,808
p590
tp591
a(S'20170205'
p592
V19,413,899,264
p593
tp594
a(S'20170212'
p595
V18,892,699,648
p596
tp597
a(S'20170219'
p598
V19,860,500,480
p599
tp600
a(S'20170226'
p601
V21,889,099,776
p602
tp603
a(S'20170305'
p604
V24,272,099,328
p605
tp606
a(S'20170312'
p607
V24,260,100,096
p608
tp609
a(S'20170319'
p610
V23,833,399,296
p611
tp612
a(S'20170326'
p613
V23,537,999,872
p614
tp615
a(S'20170402'
p616
V27,719,800,832
p617
tp618
a(S'20170409'
p619
V27,841,400,832
p620
tp621
a(S'20170416'
p622
V28,824,600,576
p623
tp624
a(S'20170423'
p625
V29,611,300,864
p626
tp627
a(S'20170430'
p628
V36,934,901,760
p629
tp630
a(S'20170507'
p631
V48,488,898,560
p632
tp633
a(S'20170514'
p634
V55,168,598,016
p635
tp636
a(S'20170521'
p637
V73,963,102,208
p638
tp639
a(S'20170528'
p640
V72,521,801,728
p641
tp642
a(S'20170604'
p643
V93,024,903,168
p644
tp645
a(S'20170611'
p646
V112,503,996,416
p647
tp648
a(S'20170618'
p649
V110,465,998,848
p650
tp651
a(S'20170625'
p652
V105,378,996,224
p653
tp654
a(S'20170702'
p655
V99,121,397,760
p656
tp657
a(S'20170709'
p658
V93,564,600,320
p659
tp660
a(S'20170716'
p661
V67,118,899,200
p662
tp663
a(S'20170723'
p664
V95,274,000,384
p665
tp666
a(S'20170730'
p667
V89,190,703,104
p668
tp669
a(S'20170806'
p670
V112,188,997,632
p671
tp672
a(S'20170813'
p673
V135,821,000,704
p674
tp675
a(S'20170820'
p676
V144,837,001,216
p677
tp678
a(S'20170827'
p679
V159,031,001,088
p680
tp681
a(S'20170903'
p682
V165,141,217,280
p683
tp684
a(S'20170910'
p685
V143,952,789,504
p686
tp687
a(S'20170917'
p688
V123,692,064,768
p689
tp690
a(S'20170924'
p691
V128,519,241,728
p692
tp693
a(S'20171001'
p694
V148,923,088,896
p695
tp696
a(S'20171008'
p697
V152,374,427,648
p698
tp699
a(S'20171015'
p700
V173,678,182,400
p701
tp702
a(S'20171022'
p703
V171,954,798,592
p704
tp705
a(S'20171029'
p706
V177,769,758,720
p707
tp708
a(S'20171105'
p709
V199,324,041,216
p710
tp711
a(S'20171112'
p712
V193,302,003,712
p713
tp714
a(S'20171119'
p715
V237,537,181,696
p716
tp717
a(S'20171126'
p718
V294,880,706,560
p719
tp720
a(S'20171203'
p721
V337,789,845,504
p722
tp723
a(S'20171210'
p724
V411,038,908,416
p725
tp726
a(S'20171217'
p727
V587,100,651,520
p728
tp729
a(S'20171224'
p730
V539,815,444,480
p731
tp732
a(S'20171231'
p733
V612,924,653,568
p734
tp735
a(S'20180107'
p736
V828,537,372,672
p737
tp738
a(S'20180114'
p739
V705,001,750,528
p740
tp741
a(S'20180121'
p742
V563,229,491,200
p743
tp744
a(S'20180128'
p745
V595,276,398,592
p746
tp747
a(S'20180204'
p748
V395,170,643,968
p749
tp750
a(S'20180211'
p751
V400,146,137,088
p752
tp753
a(S'20180218'
p754
V481,324,531,712
p755
tp756
a(S'20180225'
p757
V430,344,110,080
p758
tp759
a(S'20180304'
p760
V470,507,716,608
p761
tp762
a(S'20180311'
p763
V388,832,690,176
p764
tp765
a(S'20180318'
p766
V318,403,379,200
p767
tp768
a(S'20180325'
p769
V328,952,676,352
p770
tp771
a(S'20180401'
p772
V255,105,548,288
p773
tp774
a(S'20180408'
p775
V266,446,176,256
p776
tp777
a(S'20180415'
p778
V336,830,660,608
p779
tp780
a(S'20180422'
p781
V387,669,164,032
p782
tp783
a(S'20180429'
p784
V438,900,719,616
p785
tp786
a(S'20180506'
p787
V455,618,854,912
p788
tp789
a(S'20180513'
p790
V407,062,872,064
p791
tp792
a(S'20180520'
p793
V390,877,282,304
p794
tp795
a(S'20180527'
p796
V326,272,483,328
p797
tp798
a(S'20180603'
p799
V351,363,072,000
p800
tp801
a(S'20180610'
p802
V296,782,757,888
p803
tp804
a(S'20180617'
p805
V278,322,806,784
p806
tp807
a(S'20180624'
p808
V251,626,635,264
p809
tp810
a(S'20180701'
p811
V257,234,649,088
p812
tp813
a(S'20180708'
p814
V274,713,853,952
p815
tp816
a(S'20180715'
p817
V255,340,953,600
p818
tp819
a(S'20180722'
p820
V280,473,534,464
p821
tp822
a(S'20180729'
p823
V297,865,478,144
p824
tp825
a(S'20180805'
p826
V256,685,678,247
p827
tp828
a(S'20180812'
p829
V213,678,455,515
p830
tp831
a(S'20180819'
p832
V216,981,452,892
p833
tp834
a(S'20180826'
p835
V215,737,416,324
p836
tp837
a(S'20180902'
p838
V237,967,206,775
p839
tp840
a(S'20180909'
p841
V195,408,805,619
p842
tp843
a(S'20180916'
p844
V203,235,698,051
p845
tp846
a(S'20180923'
p847
V226,074,934,639
p848
tp849
a(S'20180930'
p850
V223,278,557,452
p851
tp852
a(S'20181007'
p853
V218,500,486,910
p854
tp855
a(S'20181014'
p856
V199,992,805,106
p857
tp858
a(S'20181021'
p859
V209,490,331,906
p860
tp861
a(S'20181028'
p862
V209,925,125,344
p863
tp864
a(S'20181104'
p865
V210,100,642,128
p866
tp867
a(S'20181111'
p868
V212,942,081,893
p869
tp870
a(S'20181118'
p871
V185,938,137,534
p872
tp873
a(S'20181125'
p874
V129,411,389,477
p875
tp876
a(S'20181202'
p877
V134,536,782,786
p878
tp879
a(S'20181209'
p880
V114,610,944,404
p881
tp882
a(S'20181216'
p883
V103,215,161,080
p884
tp885
a(S'20181223'
p886
V134,384,144,342
p887
tp888
a(S'20181230'
p889
V130,661,029,930
p890
tp891
a(S'20190106'
p892
V138,251,683,420
p893
tp894
a(S'20190113'
p895
V117,375,260,096
p896
tp897
a(S'20190120'
p898
V120,077,388,940
p899
tp900
a(S'20190127'
p901
V118,716,627,219
p902
tp903
a(S'20190203'
p904
V113,749,591,265
p905
tp906
a(S'20190210'
p907
V123,173,026,799
p908
tp909
a(S'20190217'
p910
V123,343,888,821
p911
tp912
a(S'20190224'
p913
V127,409,677,644
p914
tp915
a(S'20190303'
p916
V129,547,564,672
p917
tp918
a(S'20190310'
p919
V134,853,788,747
p920
tp921
a(S'20190317'
p922
V139,704,530,506
p923
tp924
a(S'20190324'
p925
V140,267,256,987
p926
tp927
a(S'20190331'
p928
V144,326,758,805
p929
tp930
a(S'20190407'
p931
V181,795,206,173
p932
tp933
a(S'20190414'
p934
V176,229,429,718
p935
tp936
a(S'20190421'
p937
V177,997,114,801
p938
tp939
a(S'20190428'
p940
V171,111,954,644
p941
tp942
a(S'20190505'
p943
V183,343,467,488
p944
tp945
a(S'20190512'
p946
V209,398,490,520
p947
tp948
a(S'20190519'
p949
V254,610,892,029
p950
tp951
a(S'20190526'
p952
V268,137,605,002
p953
tp954
a(S'20190602'
p955
V276,743,970,002
p956
tp957
a(S'20190609'
p958
V244,105,958,221
p959
tp960
a(S'20190616'
p961
V281,570,831,862
p962
tp963
a(S'20190623'
p964
V326,258,353,514
p965
tp966
a(S'20190630'
p967
V312,732,046,218
p968
tp969
a(S'20190707'
p970
V328,562,318,132
p971
tp972
a(S'20190714'
p973
V278,817,901,909
p974
tp975
a(S'20190721'
p976
V290,243,718,064
p977
tp978
a(S'20190728'
p979
V264,829,465,872
p980
tp981
a(S'20190804'
p982
V292,943,213,195
p983
tp984
a(S'20190811'
p985
V300,011,049,747
p986
tp987
a(S'20190818'
p988
V270,699,960,710
p989
tp990
a(S'20190825'
p991
V264,064,043,535
p992
tp993
a(S'20190901'
p994
V252,011,503,162
p995
tp996
a(S'20190908'
p997
V267,691,282,584
p998
tp999
a(S'20190915'
p1000
V266,406,889,761
p1001
tp1002
a(S'20190922'
p1003
V265,440,019,429
p1004
tp1005
a(S'20190929'
p1006
V214,537,250,187
p1007
tp1008
a(S'20191006'
p1009
V214,381,558,942
p1010
tp1011
a(S'20191013'
p1012
V224,200,284,529
p1013
tp1014
a(S'20191020'
p1015
V222,732,148,135
p1016
tp1017
a(S'20191027'
p1018
V252,528,219,571
p1019
tp1020
a(S'20191103'
p1021
V247,072,711,204
p1022
tp1023
a(S'20191110'
p1024
V246,162,089,757
p1025
tp1026
a(S'20191117'
p1027
V235,192,752,470
p1028
tp1029
a(S'20191124'
p1030
V191,655,684,063
p1031
tp1032
a(S'20191201'
p1033
V202,135,939,663
p1034
tp1035
a(S'20191208'
p1036
V205,129,791,290
p1037
tp1038
a(S'20191215'
p1039
V195,114,324,660
p1040
tp1041
a(S'20191222'
p1042
V198,230,261,805
p1043
tp1044
a(S'20191229'
p1045
V196,928,346,756
p1046
tp1047
a(S'20200105'
p1048
V197,779,783,039
p1049
tp1050
a(S'20200112'
p1051
V218,845,911,767
p1052
tp1053
a(S'20200119'
p1054
V238,885,714,824
p1055
tp1056
a(S'20200126'
p1057
V237,755,757,505
p1058
tp1059
a(S'20200202'
p1060
V259,643,454,503
p1061
tp1062
a(S'20200209'
p1063
V289,967,404,094
p1064
tp1065
a(S'20200216'
p1066
V288,032,593,680
p1067
tp1068
a(S'20200223'
p1069
V289,022,567,872
p1070
tp1071
a(S'20200301'
p1072
V243,559,652,310
p1073
tp1074
a(S'20200308'
p1075
V231,145,558,855
p1076
tp1077
a(S'20200315'
p1078
V152,899,471,730
p1079
tp1080
a(S'20200322'
p1081
V163,354,331,068
p1082
tp1083
a(S'20200329'
p1084
V167,994,375,804
p1085
tp1086
a(S'20200405'
p1087
V190,553,835,278
p1088
tp1089
a(S'20200412'
p1090
V198,521,261,836
p1091
tp1092
a(S'20200419'
p1093
V206,876,648,151
p1094
tp1095
a(S'20200426'
p1096
V221,610,785,842
p1097
tp1098
a(S'20200503'
p1099
V248,947,970,054
p1100
tp1101
a(S'20200510'
p1102
V239,905,498,767
p1103
tp1104
a(S'20200517'
p1105
V272,773,461,240
p1106
tp1107
a(S'20200524'
p1108
V245,307,463,085
p1109
tp1110
a(S'20200531'
p1111
V265,879,743,003
p1112
tp1113
a(S'20200607'
p1114
V277,380,076,894
p1115
tp1116
a(S'20200614'
p1117
V266,035,895,347
p1118
tp1119
a(S'20200621'
p1120
V264,363,305,114
p1121
tp1122
a(S'20200628'
p1123
V259,040,084,887
p1124
tp1125
a(S'20200705'
p1126
V260,306,522,653
p1127
tp1128
a(S'20200712'
p1129
V272,217,541,025
p1130
tp1131
a.